target datalayout = "e-m:e-p270:32:32-p271:32:32-p272:64:64-i64:64-i128:128-f80:128-n8:16:32:64-S128"
target triple = "x86_64-pc-linux-gnu"

%"class.sat::literal" = type { i32 }
%"class.sat::bcd" = type { ptr, %class.ptr_vector, %class.svector, %class.svector, %class.svector, %class.svector, %class.ptr_vector, %class.svector.1, %class.svector.3, %class.svector.3 }
%class.svector = type { %class.vector.0 }
%class.vector.0 = type { ptr }
%class.ptr_vector = type { %class.vector }
%class.vector = type { ptr }
%class.svector.1 = type { %class.vector.2 }
%class.vector.2 = type { ptr }
%class.svector.3 = type { %class.vector.4 }
%class.vector.4 = type { ptr }
%"class.sat::clause" = type { i32, i32, i32, %class.approx_set_tpl, i32, [0 x %"class.sat::literal"] }
%class.approx_set_tpl = type { i32 }

@_ZN3sat12null_literalE = linkonce_odr hidden constant %"class.sat::literal" { i32 -2 }, comdat, align 4

; Function Attrs: mustprogress nounwind uwtable
define linkonce_odr hidden noundef nonnull align 1 dereferenceable(1) ptr @_ZN6vectorIbLb0EjEixEj(ptr noundef nonnull align 8 dereferenceable(8) %0, i32 noundef %1) #4 comdat align 2 {
  %3 = alloca ptr, align 8
  %4 = alloca i32, align 4
  store ptr %0, ptr %3, align 8, !tbaa !33
  store i32 %1, ptr %4, align 4, !tbaa !51
  %5 = load ptr, ptr %3, align 8
  %6 = getelementptr inbounds nuw %class.vector.4, ptr %5, i32 0, i32 0
  %7 = load ptr, ptr %6, align 8, !tbaa !235
  %8 = load i32, ptr %4, align 4, !tbaa !51
  %9 = zext i32 %8 to i64
  %10 = getelementptr inbounds nuw i8, ptr %7, i64 %9
  ret ptr %10
}

; Function Attrs: mustprogress nounwind uwtable
define linkonce_odr hidden noundef i32 @_ZNK3sat7literal5indexEv(ptr noundef nonnull align 4 dereferenceable(4) %0) #4 comdat align 2 {
  %2 = alloca ptr, align 8
  store ptr %0, ptr %2, align 8, !tbaa !79
  %3 = load ptr, ptr %2, align 8
  %4 = getelementptr inbounds nuw %"class.sat::literal", ptr %3, i32 0, i32 0
  %5 = load i32, ptr %4, align 4, !tbaa !226
  ret i32 %5
}

; Function Attrs: mustprogress nounwind uwtable
define linkonce_odr hidden i32 @_ZN3satcoENS_7literalE(i32 %0) #4 comdat {
  %2 = alloca %"class.sat::literal", align 4
  %3 = alloca %"class.sat::literal", align 4
  %4 = getelementptr inbounds nuw %"class.sat::literal", ptr %3, i32 0, i32 0
  store i32 %0, ptr %4, align 4
  %5 = getelementptr inbounds nuw %"class.sat::literal", ptr %3, i32 0, i32 0
  %6 = load i32, ptr %5, align 4, !tbaa !226
  %7 = xor i32 %6, 1
  %8 = getelementptr inbounds nuw %"class.sat::literal", ptr %3, i32 0, i32 0
  store i32 %7, ptr %8, align 4, !tbaa !226
  call void @llvm.memcpy.p0.p0.i64(ptr align 4 %2, ptr align 4 %3, i64 4, i1 false), !tbaa.struct !50
  %9 = getelementptr inbounds nuw %"class.sat::literal", ptr %2, i32 0, i32 0
  %10 = load i32, ptr %9, align 4
  ret i32 %10
}

; Function Attrs: mustprogress nounwind uwtable
define linkonce_odr hidden noundef ptr @_ZNK3sat6clause3endEv(ptr noundef nonnull align 4 dereferenceable(20) %0) #4 comdat align 2 {
  %2 = alloca ptr, align 8
  store ptr %0, ptr %2, align 8, !tbaa !48
  %3 = load ptr, ptr %2, align 8
  %4 = getelementptr inbounds nuw %"class.sat::clause", ptr %3, i32 0, i32 5
  %5 = getelementptr inbounds [0 x %"class.sat::literal"], ptr %4, i64 0, i64 0
  %6 = getelementptr inbounds nuw %"class.sat::clause", ptr %3, i32 0, i32 1
  %7 = load i32, ptr %6, align 4, !tbaa !70
  %8 = zext i32 %7 to i64
  %9 = getelementptr inbounds nuw %"class.sat::literal", ptr %5, i64 %8
  ret ptr %9
}

; Function Attrs: mustprogress nounwind uwtable
define linkonce_odr hidden noundef ptr @_ZNK3sat6clause5beginEv(ptr noundef nonnull align 4 dereferenceable(20) %0) #4 comdat align 2 {
  %2 = alloca ptr, align 8
  store ptr %0, ptr %2, align 8, !tbaa !48
  %3 = load ptr, ptr %2, align 8
  %4 = getelementptr inbounds nuw %"class.sat::clause", ptr %3, i32 0, i32 5
  %5 = getelementptr inbounds [0 x %"class.sat::literal"], ptr %4, i64 0, i64 0
  ret ptr %5
}

; Function Attrs: mustprogress uwtable
define hidden i32 @_ZN3sat3bcd12find_blockedERNS_8use_listERKNS_6clauseE(ptr noundef nonnull align 8 dereferenceable(80) %0, ptr noundef nonnull align 8 dereferenceable(8) %1, ptr noundef nonnull align 4 dereferenceable(20) %2) #5 align 2 {
  %4 = alloca %"class.sat::literal", align 4
  %5 = alloca ptr, align 8
  %6 = alloca ptr, align 8
  %7 = alloca ptr, align 8
  %8 = alloca ptr, align 8
  %9 = alloca ptr, align 8
  %10 = alloca ptr, align 8
  %11 = alloca %"class.sat::literal", align 4
  %12 = alloca %"class.sat::literal", align 4
  %13 = alloca %"class.sat::literal", align 4
  %14 = alloca ptr, align 8
  %15 = alloca ptr, align 8
  %16 = alloca ptr, align 8
  %17 = alloca i32, align 4
  %18 = alloca %"class.sat::literal", align 4
  %19 = alloca %"class.sat::literal", align 4
  %20 = alloca ptr, align 8
  %21 = alloca ptr, align 8
  %22 = alloca ptr, align 8
  %23 = alloca %"class.sat::literal", align 4
  %24 = alloca %"class.sat::literal", align 4
  %25 = alloca %"class.sat::literal", align 4
  store ptr %0, ptr %5, align 8, !tbaa !3
  store ptr %1, ptr %6, align 8, !tbaa !82
  store ptr %2, ptr %7, align 8, !tbaa !48
  %26 = load ptr, ptr %5, align 8
  call void @llvm.lifetime.start.p0(i64 8, ptr %8) #3
  %27 = load ptr, ptr %7, align 8, !tbaa !48
  store ptr %27, ptr %8, align 8, !tbaa !48
  call void @llvm.lifetime.start.p0(i64 8, ptr %9) #3
  %28 = load ptr, ptr %8, align 8, !tbaa !48
  %29 = call noundef ptr @_ZNK3sat6clause5beginEv(ptr noundef nonnull align 4 dereferenceable(20) %28)
  store ptr %29, ptr %9, align 8, !tbaa !79
  call void @llvm.lifetime.start.p0(i64 8, ptr %10) #3
  %30 = load ptr, ptr %8, align 8, !tbaa !48
  %31 = call noundef ptr @_ZNK3sat6clause3endEv(ptr noundef nonnull align 4 dereferenceable(20) %30)
  store ptr %31, ptr %10, align 8, !tbaa !79
  br label %32

32:                                               ; preds = %46, %3
  %33 = load ptr, ptr %9, align 8, !tbaa !79
  %34 = load ptr, ptr %10, align 8, !tbaa !79
  %35 = icmp ne ptr %33, %34
  br i1 %35, label %37, label %36

36:                                               ; preds = %32
  call void @llvm.lifetime.end.p0(i64 8, ptr %10) #3
  call void @llvm.lifetime.end.p0(i64 8, ptr %9) #3
  call void @llvm.lifetime.end.p0(i64 8, ptr %8) #3
  br label %49

37:                                               ; preds = %32
  call void @llvm.lifetime.start.p0(i64 4, ptr %11) #3
  %38 = load ptr, ptr %9, align 8, !tbaa !79
  call void @llvm.memcpy.p0.p0.i64(ptr align 4 %11, ptr align 4 %38, i64 4, i1 false), !tbaa.struct !50
  %39 = getelementptr inbounds nuw %"class.sat::bcd", ptr %26, i32 0, i32 8
  call void @llvm.lifetime.start.p0(i64 4, ptr %12) #3
  call void @llvm.memcpy.p0.p0.i64(ptr align 4 %13, ptr align 4 %11, i64 4, i1 false), !tbaa.struct !50
  %40 = getelementptr inbounds nuw %"class.sat::literal", ptr %13, i32 0, i32 0
  %41 = load i32, ptr %40, align 4
  %42 = call i32 @_ZN3satcoENS_7literalE(i32 %41)
  %43 = getelementptr inbounds nuw %"class.sat::literal", ptr %12, i32 0, i32 0
  store i32 %42, ptr %43, align 4
  %44 = call noundef i32 @_ZNK3sat7literal5indexEv(ptr noundef nonnull align 4 dereferenceable(4) %12)
  %45 = call noundef nonnull align 1 dereferenceable(1) ptr @_ZN6vectorIbLb0EjEixEj(ptr noundef nonnull align 8 dereferenceable(8) %39, i32 noundef %44)
  store i8 1, ptr %45, align 1, !tbaa !236
  call void @llvm.lifetime.end.p0(i64 4, ptr %12) #3
  call void @llvm.lifetime.end.p0(i64 4, ptr %11) #3
  br label %46

46:                                               ; preds = %37
  %47 = load ptr, ptr %9, align 8, !tbaa !79
  %48 = getelementptr inbounds nuw %"class.sat::literal", ptr %47, i32 1
  store ptr %48, ptr %9, align 8, !tbaa !79
  br label %32

49:                                               ; preds = %36
  call void @llvm.memcpy.p0.p0.i64(ptr align 4 %4, ptr align 4 @_ZN3sat12null_literalE, i64 4, i1 false), !tbaa.struct !50
  call void @llvm.lifetime.start.p0(i64 8, ptr %14) #3
  %50 = load ptr, ptr %7, align 8, !tbaa !48
  store ptr %50, ptr %14, align 8, !tbaa !48
  call void @llvm.lifetime.start.p0(i64 8, ptr %15) #3
  %51 = load ptr, ptr %14, align 8, !tbaa !48
  %52 = call noundef ptr @_ZNK3sat6clause5beginEv(ptr noundef nonnull align 4 dereferenceable(20) %51)
  store ptr %52, ptr %15, align 8, !tbaa !79
  call void @llvm.lifetime.start.p0(i64 8, ptr %16) #3
  %53 = load ptr, ptr %14, align 8, !tbaa !48
  %54 = call noundef ptr @_ZNK3sat6clause3endEv(ptr noundef nonnull align 4 dereferenceable(20) %53)
  store ptr %54, ptr %16, align 8, !tbaa !79
  br label %55

55:                                               ; preds = %71, %49
  %56 = load ptr, ptr %15, align 8, !tbaa !79
  %57 = load ptr, ptr %16, align 8, !tbaa !79
  %58 = icmp ne ptr %56, %57
  br i1 %58, label %60, label %59

59:                                               ; preds = %55
  store i32 4, ptr %17, align 4
  br label %74

60:                                               ; preds = %55
  call void @llvm.lifetime.start.p0(i64 4, ptr %18) #3
  %61 = load ptr, ptr %15, align 8, !tbaa !79
  call void @llvm.memcpy.p0.p0.i64(ptr align 4 %18, ptr align 4 %61, i64 4, i1 false), !tbaa.struct !50
  %62 = load ptr, ptr %6, align 8, !tbaa !82
  call void @llvm.memcpy.p0.p0.i64(ptr align 4 %19, ptr align 4 %18, i64 4, i1 false), !tbaa.struct !50
  %63 = getelementptr inbounds nuw %"class.sat::literal", ptr %19, i32 0, i32 0
  %64 = load i32, ptr %63, align 4
  %65 = call noundef zeroext i1 @_ZNK3sat3bcd10is_blockedERNS_8use_listENS_7literalE(ptr noundef nonnull align 8 dereferenceable(80) %26, ptr noundef nonnull align 8 dereferenceable(8) %62, i32 %64)
  br i1 %65, label %66, label %67

66:                                               ; preds = %60
  call void @llvm.memcpy.p0.p0.i64(ptr align 4 %4, ptr align 4 %18, i64 4, i1 false), !tbaa.struct !50
  store i32 4, ptr %17, align 4
  br label %68

67:                                               ; preds = %60
  store i32 0, ptr %17, align 4
  br label %68

68:                                               ; preds = %67, %66
  call void @llvm.lifetime.end.p0(i64 4, ptr %18) #3
  %69 = load i32, ptr %17, align 4
  switch i32 %69, label %74 [
    i32 0, label %70
  ]

70:                                               ; preds = %68
  br label %71

71:                                               ; preds = %70
  %72 = load ptr, ptr %15, align 8, !tbaa !79
  %73 = getelementptr inbounds nuw %"class.sat::literal", ptr %72, i32 1
  store ptr %73, ptr %15, align 8, !tbaa !79
  br label %55

74:                                               ; preds = %68, %59
  call void @llvm.lifetime.end.p0(i64 8, ptr %16) #3
  call void @llvm.lifetime.end.p0(i64 8, ptr %15) #3
  call void @llvm.lifetime.end.p0(i64 8, ptr %14) #3
  br label %75

75:                                               ; preds = %74
  call void @llvm.lifetime.start.p0(i64 8, ptr %20) #3
  %76 = load ptr, ptr %7, align 8, !tbaa !48
  store ptr %76, ptr %20, align 8, !tbaa !48
  call void @llvm.lifetime.start.p0(i64 8, ptr %21) #3
  %77 = load ptr, ptr %20, align 8, !tbaa !48
  %78 = call noundef ptr @_ZNK3sat6clause5beginEv(ptr noundef nonnull align 4 dereferenceable(20) %77)
  store ptr %78, ptr %21, align 8, !tbaa !79
  call void @llvm.lifetime.start.p0(i64 8, ptr %22) #3
  %79 = load ptr, ptr %20, align 8, !tbaa !48
  %80 = call noundef ptr @_ZNK3sat6clause3endEv(ptr noundef nonnull align 4 dereferenceable(20) %79)
  store ptr %80, ptr %22, align 8, !tbaa !79
  br label %81

81:                                               ; preds = %95, %75
  %82 = load ptr, ptr %21, align 8, !tbaa !79
  %83 = load ptr, ptr %22, align 8, !tbaa !79
  %84 = icmp ne ptr %82, %83
  br i1 %84, label %86, label %85

85:                                               ; preds = %81
  store i32 6, ptr %17, align 4
  call void @llvm.lifetime.end.p0(i64 8, ptr %22) #3
  call void @llvm.lifetime.end.p0(i64 8, ptr %21) #3
  call void @llvm.lifetime.end.p0(i64 8, ptr %20) #3
  br label %98

86:                                               ; preds = %81
  call void @llvm.lifetime.start.p0(i64 4, ptr %23) #3
  %87 = load ptr, ptr %21, align 8, !tbaa !79
  call void @llvm.memcpy.p0.p0.i64(ptr align 4 %23, ptr align 4 %87, i64 4, i1 false), !tbaa.struct !50
  %88 = getelementptr inbounds nuw %"class.sat::bcd", ptr %26, i32 0, i32 8
  call void @llvm.lifetime.start.p0(i64 4, ptr %24) #3
  call void @llvm.memcpy.p0.p0.i64(ptr align 4 %25, ptr align 4 %23, i64 4, i1 false), !tbaa.struct !50
  %89 = getelementptr inbounds nuw %"class.sat::literal", ptr %25, i32 0, i32 0
  %90 = load i32, ptr %89, align 4
  %91 = call i32 @_ZN3satcoENS_7literalE(i32 %90)
  %92 = getelementptr inbounds nuw %"class.sat::literal", ptr %24, i32 0, i32 0
  store i32 %91, ptr %92, align 4
  %93 = call noundef i32 @_ZNK3sat7literal5indexEv(ptr noundef nonnull align 4 dereferenceable(4) %24)
  %94 = call noundef nonnull align 1 dereferenceable(1) ptr @_ZN6vectorIbLb0EjEixEj(ptr noundef nonnull align 8 dereferenceable(8) %88, i32 noundef %93)
  store i8 0, ptr %94, align 1, !tbaa !236
  call void @llvm.lifetime.end.p0(i64 4, ptr %24) #3
  call void @llvm.lifetime.end.p0(i64 4, ptr %23) #3
  br label %95

95:                                               ; preds = %86
  %96 = load ptr, ptr %21, align 8, !tbaa !79
  %97 = getelementptr inbounds nuw %"class.sat::literal", ptr %96, i32 1
  store ptr %97, ptr %21, align 8, !tbaa !79
  br label %81

98:                                               ; preds = %85
  %99 = getelementptr inbounds nuw %"class.sat::literal", ptr %4, i32 0, i32 0
  %100 = load i32, ptr %99, align 4
  ret i32 %100
}