; Function Attrs: mustprogress uwtable
define hidden i32 @_ZN3sat3bcd12find_blockedERNS_8use_listERKNS_6clauseE(ptr noundef nonnull readonly align 8 captures(none) dereferenceable(80) %0, ptr noundef nonnull readonly align 8 captures(none) dereferenceable(8) %1, ptr noundef nonnull readonly align 4 captures(address) dereferenceable(20) %2) local_unnamed_addr #5 align 2 {
  %.ptr.ptr = getelementptr inbounds nuw i8, ptr %2, i64 20
  %4 = getelementptr inbounds nuw i8, ptr %2, i64 4
  %5 = load i32, ptr %4, align 4, !tbaa !43
  %6 = zext i32 %5 to i64
  %.idx = shl nuw nsw i64 %6, 2
  %7 = getelementptr inbounds nuw i8, ptr %2, i64 %.idx
  %.ptr48 = getelementptr inbounds nuw i8, ptr %7, i64 20
  %.not36 = icmp eq i32 %5, 0
  br i1 %.not36, label %._crit_edge47, label %.lr.ph

.lr.ph:                                           ; preds = %3
  %8 = getelementptr inbounds nuw i8, ptr %0, i64 64
  %9 = load ptr, ptr %8, align 8, !tbaa !27
  br label %10

10:                                               ; preds = %.lr.ph, %10
  %.037 = phi ptr [ %.ptr.ptr, %.lr.ph ], [ %14, %10 ]
  %.sroa.017.0.copyload = load i32, ptr %.037, align 4, !tbaa !24
  %11 = xor i32 %.sroa.017.0.copyload, 1
  %12 = zext i32 %11 to i64
  %13 = getelementptr inbounds nuw i8, ptr %9, i64 %12
  store i8 1, ptr %13, align 1, !tbaa !47
  %14 = getelementptr inbounds nuw i8, ptr %.037, i64 4
  %.not = icmp eq ptr %14, %.ptr48
  br i1 %.not, label %.lr.ph40, label %10

15:                                               ; preds = %.lr.ph40
  %16 = getelementptr inbounds nuw i8, ptr %.03039, i64 4
  %.not33 = icmp eq ptr %16, %.ptr48
  br i1 %.not33, label %._crit_edge, label %.lr.ph40

.lr.ph40:                                         ; preds = %10, %15
  %.03039 = phi ptr [ %16, %15 ], [ %.ptr.ptr, %10 ]
  %.sroa.08.0.copyload = load i32, ptr %.03039, align 4, !tbaa !24
  %17 = tail call noundef zeroext i1 @_ZNK3sat3bcd10is_blockedERNS_8use_listENS_7literalE(ptr noundef nonnull align 8 dereferenceable(80) %0, ptr noundef nonnull align 8 dereferenceable(8) %1, i32 %.sroa.08.0.copyload)
  br i1 %17, label %._crit_edge, label %15

._crit_edge:                                      ; preds = %.lr.ph40, %15
  %.sroa.029.1.ph = phi i32 [ %.sroa.08.0.copyload, %.lr.ph40 ], [ -2, %15 ]
  %.pre = load i32, ptr %4, align 4, !tbaa !43
  %18 = zext i32 %.pre to i64
  %.idx49 = shl nuw nsw i64 %18, 2
  %19 = getelementptr inbounds nuw i8, ptr %2, i64 %.idx49
  %.ptr50 = getelementptr inbounds nuw i8, ptr %19, i64 20
  %.not3443 = icmp eq i32 %.pre, 0
  br i1 %.not3443, label %._crit_edge47, label %.lr.ph46

.lr.ph46:                                         ; preds = %._crit_edge
  %20 = getelementptr inbounds nuw i8, ptr %0, i64 64
  %21 = load ptr, ptr %20, align 8, !tbaa !27
  br label %22

._crit_edge47:                                    ; preds = %22, %3, %._crit_edge
  %.sroa.029.155 = phi i32 [ %.sroa.029.1.ph, %._crit_edge ], [ -2, %3 ], [ %.sroa.029.1.ph, %22 ]
  ret i32 %.sroa.029.155

22:                                               ; preds = %.lr.ph46, %22
  %.03144 = phi ptr [ %.ptr.ptr, %.lr.ph46 ], [ %26, %22 ]
  %.sroa.01.0.copyload = load i32, ptr %.03144, align 4, !tbaa !24
  %23 = xor i32 %.sroa.01.0.copyload, 1
  %24 = zext i32 %23 to i64
  %25 = getelementptr inbounds nuw i8, ptr %21, i64 %24
  store i8 0, ptr %25, align 1, !tbaa !47
  %26 = getelementptr inbounds nuw i8, ptr %.03144, i64 4
  %.not34 = icmp eq ptr %26, %.ptr50
  br i1 %.not34, label %._crit_edge47, label %22
}